#include <math.h>
#include <stdio.h>
#include <stdlib.h>
#include <string.h>

int main()
{
	int f(char *str);
	int t,i;
	char str[100][100000];
	scanf("%d\n",&t);
	for(i=0;i<t;i++)
	{
		gets(str[i]);
	}
	for(i=0;i<t;i++)
	{
		f(str[i]);
	}
	return 0;
}
int f(char *str)
{
	int letter[26],i,p=0;
	char c;
	for(i=0;i<26;i++)
	{
		letter[i]=0;
	}
	for(i=0;*(str+i)!='\0';i++)
	{
		c=*(str+i);
		letter[c-97]++;
	}
	for(i=0;*(str+i)!=0;i++)
	{
		c=*(str+i);
		if(letter[c-97]==1)
		{
			printf("%c\n",c);
			p=1;
			break;
		}
	}
	if(p==0)
		printf("no\n");
	return 0;
}
